target datalayout = "e-m:e-p270:32:32-p271:32:32-p272:64:64-i64:64-i128:128-f80:128-n8:16:32:64-S128"
target triple = "x86_64-pc-linux-gnu"

%struct.cli_ctx_tag = type { ptr, ptr, ptr, ptr, ptr, ptr, ptr, i64, ptr, i32, i32, ptr, i32, i32, ptr, [16 x i8], ptr, ptr, ptr, ptr, ptr, ptr, %struct.timeval, i8, i8 }
%struct.timeval = type { i64, i64 }

@.str.224 = private unnamed_addr constant [6 x i8] c"<xml>\00", align 1
@.str.225 = private unnamed_addr constant [7 x i8] c"</xml>\00", align 1
@.str.226 = private unnamed_addr constant [38 x i8] c"parseMHTMLComment: unbounded xml tag\0A\00", align 1
@.str.227 = private unnamed_addr constant [12 x i8] c"comment.xml\00", align 1
@.str.228 = private unnamed_addr constant [48 x i8] c"parseMHTMLComment: cannot initialize xmlReader\0A\00", align 1
@.str.229 = private unnamed_addr constant [27 x i8] c"MHTML_ERROR_XML_READER_MEM\00", align 1
@num_mhtml_comment_keys = internal global i64 18, align 8

; Function Attrs: nounwind uwtable
define internal i32 @parseMHTMLComment(ptr noundef %0, ptr noundef %1, ptr noundef %2, ptr noundef %3) #0 {
  %5 = alloca i32, align 4
  %6 = alloca ptr, align 8
  %7 = alloca ptr, align 8
  %8 = alloca ptr, align 8
  %9 = alloca ptr, align 8
  %10 = alloca i32, align 4
  %11 = alloca ptr, align 8
  %12 = alloca ptr, align 8
  %13 = alloca ptr, align 8
  store ptr %0, ptr %6, align 8
  store ptr %1, ptr %7, align 8
  store ptr %2, ptr %8, align 8
  store ptr %3, ptr %9, align 8
  store i32 0, ptr %10, align 4
  %14 = load ptr, ptr %6, align 8
  store ptr %14, ptr %12, align 8
  br label %15

15:                                               ; preds = %61, %4
  %16 = load ptr, ptr %12, align 8
  %17 = call ptr @strstr(ptr noundef %16, ptr noundef @.str.224) #9
  store ptr %17, ptr %11, align 8
  %18 = icmp ne ptr %17, null
  br i1 %18, label %19, label %62

19:                                               ; preds = %15
  %20 = load ptr, ptr %11, align 8
  %21 = call ptr @strstr(ptr noundef %20, ptr noundef @.str.225) #9
  store ptr %21, ptr %12, align 8
  %22 = load ptr, ptr %12, align 8
  %23 = icmp eq ptr %22, null
  br i1 %23, label %24, label %25

24:                                               ; preds = %19
  call void (ptr, ...) @cli_dbgmsg(ptr noundef @.str.226)
  br label %62

25:                                               ; preds = %19
  %26 = load ptr, ptr %11, align 8
  %27 = load ptr, ptr %12, align 8
  %28 = load ptr, ptr %11, align 8
  %29 = ptrtoint ptr %27 to i64
  %30 = ptrtoint ptr %28 to i64
  %31 = sub i64 %29, %30
  %32 = add nsw i64 %31, 6
  %33 = trunc i64 %32 to i32
  %34 = call ptr @xmlReaderForMemory(ptr noundef %26, i32 noundef %33, ptr noundef @.str.227, ptr noundef null, i32 noundef 2080)
  store ptr %34, ptr %13, align 8
  %35 = load ptr, ptr %13, align 8
  %36 = icmp ne ptr %35, null
  br i1 %36, label %49, label %37

37:                                               ; preds = %25
  call void (ptr, ...) @cli_dbgmsg(ptr noundef @.str.228)
  %38 = load ptr, ptr %7, align 8
  %39 = getelementptr inbounds %struct.cli_ctx_tag, ptr %38, i32 0, i32 21
  %40 = load ptr, ptr %39, align 8
  %41 = icmp ne ptr %40, null
  br i1 %41, label %42, label %47

42:                                               ; preds = %37
  %43 = load ptr, ptr %7, align 8
  %44 = getelementptr inbounds %struct.cli_ctx_tag, ptr %43, i32 0, i32 21
  %45 = load ptr, ptr %44, align 8
  %46 = call i32 @cli_json_parse_error(ptr noundef %45, ptr noundef @.str.229)
  store i32 %46, ptr %10, align 4
  br label %47

47:                                               ; preds = %42, %37
  %48 = load i32, ptr %10, align 4
  store i32 %48, ptr %5, align 4
  br label %64

49:                                               ; preds = %25
  %50 = load ptr, ptr %7, align 8
  %51 = load ptr, ptr %13, align 8
  %52 = load i64, ptr @num_mhtml_comment_keys, align 8
  %53 = call i32 @cli_msxml_parse_document(ptr noundef %50, ptr noundef %51, ptr noundef @mhtml_comment_keys, i64 noundef %52, i32 noundef 1, ptr noundef null)
  store i32 %53, ptr %10, align 4
  %54 = load ptr, ptr %13, align 8
  %55 = call i32 @xmlTextReaderClose(ptr noundef %54)
  %56 = load ptr, ptr %13, align 8
  call void @xmlFreeTextReader(ptr noundef %56)
  %57 = load i32, ptr %10, align 4
  %58 = icmp ne i32 %57, 0
  br i1 %58, label %59, label %61

59:                                               ; preds = %49
  %60 = load i32, ptr %10, align 4
  store i32 %60, ptr %5, align 4
  br label %64

61:                                               ; preds = %49
  br label %15

62:                                               ; preds = %24, %15
  %63 = load i32, ptr %10, align 4
  store i32 %63, ptr %5, align 4
  br label %64

64:                                               ; preds = %62, %59, %47
  %65 = load i32, ptr %5, align 4
  ret i32 %65
}