; Function Attrs: nounwind uwtable
define internal i32 @parseMHTMLComment(ptr noundef %0, ptr noundef %1, ptr nocapture readnone %2, ptr nocapture readnone %3) #0 {
  br label %5

5:                                                ; preds = %23, %4
  %.018 = phi ptr [ %0, %4 ], [ %8, %23 ]
  %6 = tail call ptr @strstr(ptr noundef nonnull dereferenceable(1) %.018, ptr noundef nonnull dereferenceable(1) @.str.224) #21
  %.not = icmp eq ptr %6, null
  br i1 %.not, label %.loopexit, label %7

7:                                                ; preds = %5
  %8 = tail call ptr @strstr(ptr noundef nonnull dereferenceable(1) %6, ptr noundef nonnull dereferenceable(1) @.str.225) #21
  %9 = icmp eq ptr %8, null
  br i1 %9, label %10, label %11

10:                                               ; preds = %7
  tail call void (ptr, ...) @cli_dbgmsg(ptr noundef nonnull @.str.226) #19
  br label %.loopexit

11:                                               ; preds = %7
  %12 = ptrtoint ptr %8 to i64
  %13 = ptrtoint ptr %6 to i64
  %14 = sub i64 %12, %13
  %15 = trunc i64 %14 to i32
  %16 = add i32 %15, 6
  %17 = tail call ptr @xmlReaderForMemory(ptr noundef nonnull %6, i32 noundef %16, ptr noundef nonnull @.str.227, ptr noundef null, i32 noundef 2080) #19
  %.not26 = icmp eq ptr %17, null
  br i1 %.not26, label %18, label %23

18:                                               ; preds = %11
  tail call void (ptr, ...) @cli_dbgmsg(ptr noundef nonnull @.str.228) #19
  %19 = getelementptr inbounds i8, ptr %1, i64 160
  %20 = load ptr, ptr %19, align 8
  %.not27 = icmp eq ptr %20, null
  br i1 %.not27, label %.loopexit, label %21

21:                                               ; preds = %18
  %22 = tail call i32 @cli_json_parse_error(ptr noundef nonnull %20, ptr noundef nonnull @.str.229) #19
  br label %.loopexit

23:                                               ; preds = %11
  %24 = tail call i32 @cli_msxml_parse_document(ptr noundef %1, ptr noundef nonnull %17, ptr noundef nonnull @mhtml_comment_keys, i64 noundef 18, i32 noundef 1, ptr noundef null) #19
  %25 = tail call i32 @xmlTextReaderClose(ptr noundef nonnull %17) #19
  tail call void @xmlFreeTextReader(ptr noundef nonnull %17) #19
  %.not28 = icmp eq i32 %24, 0
  br i1 %.not28, label %5, label %.loopexit

.loopexit:                                        ; preds = %5, %23, %10, %18, %21
  %.0 = phi i32 [ %22, %21 ], [ 0, %18 ], [ 0, %10 ], [ 0, %5 ], [ %24, %23 ]
  ret i32 %.0
}